target datalayout = "e-m:e-p270:32:32-p271:32:32-p272:64:64-i64:64-i128:128-f80:128-n8:16:32:64-S128"
target triple = "x86_64-pc-linux-gnu"

%struct.hwloc_topology = type { i32, i32, i32, ptr, ptr, i64, [20 x i32], [20 x i32], i64, i64, i32, ptr, i64, ptr, i64, [6 x %struct.hwloc_special_level_s], ptr, ptr, %struct.hwloc_binding_hooks, %struct.hwloc_topology_support, %struct.hwloc_infos_s, ptr, ptr, i32, ptr, ptr, i32, i32, ptr, i32, i32, ptr, i32, i32, i32, [5 x float], i32, ptr, ptr, i32, i32, ptr, i32, %struct.hwloc_numanode_attr_s, i32, i32, ptr, i64, i32, ptr, ptr, ptr }
%struct.hwloc_special_level_s = type { i32, ptr, ptr, ptr }
%struct.hwloc_binding_hooks = type { ptr, ptr, ptr, ptr, ptr, ptr, ptr, ptr, ptr, ptr, ptr, ptr, ptr, ptr, ptr, ptr, ptr, ptr, ptr, ptr, ptr, ptr, ptr, ptr }
%struct.hwloc_topology_support = type { ptr, ptr, ptr, ptr }
%struct.hwloc_infos_s = type { ptr, i32, i32 }
%struct.hwloc_numanode_attr_s = type { i64, i32, ptr }
%struct.hwloc_internal_distances_s = type { ptr, i32, i32, ptr, i32, ptr, ptr, i64, i32, ptr, ptr, ptr }
%struct.hwloc_distances_container_s = type { i32, %struct.hwloc_distances_s }
%struct.hwloc_distances_s = type { i32, ptr, i64, ptr }

; Function Attrs: nounwind uwtable
define internal ptr @hwloc__internal_distances_from_public(ptr noundef %0, ptr noundef %1) #0 {
  %3 = alloca ptr, align 8
  %4 = alloca ptr, align 8
  %5 = alloca ptr, align 8
  %6 = alloca ptr, align 8
  %7 = alloca ptr, align 8
  %8 = alloca i32, align 4
  store ptr %0, ptr %4, align 8, !tbaa !3
  store ptr %1, ptr %5, align 8, !tbaa !70
  call void @llvm.lifetime.start.p0(i64 8, ptr %6) #15
  %9 = load ptr, ptr %5, align 8, !tbaa !70
  %10 = getelementptr inbounds i8, ptr %9, i64 sub (i64 0, i64 ptrtoint (ptr getelementptr inbounds nuw (%struct.hwloc_distances_container_s, ptr null, i32 0, i32 1) to i64))
  store ptr %10, ptr %6, align 8, !tbaa !72
  call void @llvm.lifetime.start.p0(i64 8, ptr %7) #15
  %11 = load ptr, ptr %4, align 8, !tbaa !3
  %12 = getelementptr inbounds nuw %struct.hwloc_topology, ptr %11, i32 0, i32 24
  %13 = load ptr, ptr %12, align 8, !tbaa !33
  store ptr %13, ptr %7, align 8, !tbaa !46
  br label %14

14:                                               ; preds = %28, %2
  %15 = load ptr, ptr %7, align 8, !tbaa !46
  %16 = icmp ne ptr %15, null
  br i1 %16, label %17, label %32

17:                                               ; preds = %14
  %18 = load ptr, ptr %7, align 8, !tbaa !46
  %19 = getelementptr inbounds nuw %struct.hwloc_internal_distances_s, ptr %18, i32 0, i32 1
  %20 = load i32, ptr %19, align 8, !tbaa !64
  %21 = load ptr, ptr %6, align 8, !tbaa !72
  %22 = getelementptr inbounds nuw %struct.hwloc_distances_container_s, ptr %21, i32 0, i32 0
  %23 = load i32, ptr %22, align 8, !tbaa !74
  %24 = icmp eq i32 %20, %23
  br i1 %24, label %25, label %27

25:                                               ; preds = %17
  %26 = load ptr, ptr %7, align 8, !tbaa !46
  store ptr %26, ptr %3, align 8
  store i32 1, ptr %8, align 4
  br label %33

27:                                               ; preds = %17
  br label %28

28:                                               ; preds = %27
  %29 = load ptr, ptr %7, align 8, !tbaa !46
  %30 = getelementptr inbounds nuw %struct.hwloc_internal_distances_s, ptr %29, i32 0, i32 11
  %31 = load ptr, ptr %30, align 8, !tbaa !47
  store ptr %31, ptr %7, align 8, !tbaa !46
  br label %14, !llvm.loop !77

32:                                               ; preds = %14
  store ptr null, ptr %3, align 8
  store i32 1, ptr %8, align 4
  br label %33

33:                                               ; preds = %32, %25
  call void @llvm.lifetime.end.p0(i64 8, ptr %7) #15
  call void @llvm.lifetime.end.p0(i64 8, ptr %6) #15
  %34 = load ptr, ptr %3, align 8
  ret ptr %34
}

; Function Attrs: nounwind uwtable
define ptr @hwloc_distances_get_name(ptr noundef %0, ptr noundef %1) #0 {
  %3 = alloca ptr, align 8
  %4 = alloca ptr, align 8
  %5 = alloca ptr, align 8
  store ptr %0, ptr %3, align 8, !tbaa !3
  store ptr %1, ptr %4, align 8, !tbaa !70
  call void @llvm.lifetime.start.p0(i64 8, ptr %5) #15
  %6 = load ptr, ptr %3, align 8, !tbaa !3
  %7 = load ptr, ptr %4, align 8, !tbaa !70
  %8 = call ptr @hwloc__internal_distances_from_public(ptr noundef %6, ptr noundef %7)
  store ptr %8, ptr %5, align 8, !tbaa !46
  %9 = load ptr, ptr %5, align 8, !tbaa !46
  %10 = icmp ne ptr %9, null
  br i1 %10, label %11, label %15

11:                                               ; preds = %2
  %12 = load ptr, ptr %5, align 8, !tbaa !46
  %13 = getelementptr inbounds nuw %struct.hwloc_internal_distances_s, ptr %12, i32 0, i32 0
  %14 = load ptr, ptr %13, align 8, !tbaa !53
  br label %16

15:                                               ; preds = %2
  br label %16

16:                                               ; preds = %15, %11
  %17 = phi ptr [ %14, %11 ], [ null, %15 ]
  call void @llvm.lifetime.end.p0(i64 8, ptr %5) #15
  ret ptr %17
}