; Function Attrs: nofree norecurse nosync nounwind memory(read, inaccessiblemem: none) uwtable
define ptr @hwloc_distances_get_name(ptr noundef readonly captures(none) %0, ptr noundef readonly captures(none) %1) local_unnamed_addr #19 {
  %3 = getelementptr inbounds nuw i8, ptr %0, i64 728
  %.09.i = load ptr, ptr %3, align 8, !tbaa !51
  %.not10.i = icmp eq ptr %.09.i, null
  br i1 %.not10.i, label %hwloc__internal_distances_from_public.exit.thread, label %.lr.ph.i

.lr.ph.i:                                         ; preds = %2
  %4 = getelementptr inbounds i8, ptr %1, i64 -8
  %5 = load i32, ptr %4, align 8, !tbaa !66
  br label %6

6:                                                ; preds = %10, %.lr.ph.i
  %.011.i = phi ptr [ %.09.i, %.lr.ph.i ], [ %.0.i, %10 ]
  %7 = getelementptr inbounds nuw i8, ptr %.011.i, i64 8
  %8 = load i32, ptr %7, align 8, !tbaa !58
  %9 = icmp eq i32 %8, %5
  br i1 %9, label %hwloc__internal_distances_from_public.exit, label %10

10:                                               ; preds = %6
  %11 = getelementptr inbounds nuw i8, ptr %.011.i, i64 80
  %.0.i = load ptr, ptr %11, align 8, !tbaa !51
  %.not.i = icmp eq ptr %.0.i, null
  br i1 %.not.i, label %hwloc__internal_distances_from_public.exit.thread, label %6, !llvm.loop !69

hwloc__internal_distances_from_public.exit:       ; preds = %6
  %12 = load ptr, ptr %.011.i, align 8, !tbaa !43
  br label %hwloc__internal_distances_from_public.exit.thread

hwloc__internal_distances_from_public.exit.thread: ; preds = %10, %2, %hwloc__internal_distances_from_public.exit
  %13 = phi ptr [ %12, %hwloc__internal_distances_from_public.exit ], [ null, %2 ], [ null, %10 ]
  ret ptr %13
}